; Function Attrs: mustprogress uwtable
define noundef nonnull ptr @_ZN8proxygen17HTTPCommonHeaders9initNamesB5cxx11ENS_25HTTPCommonHeaderTableTypeE(i8 noundef zeroext %type) local_unnamed_addr #1 align 2 personality ptr @__gxx_personality_v0 {
entry:
  %call = tail call noalias noundef nonnull dereferenceable(2856) ptr @_Znam(i64 noundef 2856) #7
  store i64 89, ptr %call, align 16
  br label %arrayctor.loop

arrayctor.loop:                                   ; preds = %arrayctor.loop, %entry
  %arrayctor.cur.idx = phi i64 [ 8, %entry ], [ %arrayctor.cur.add, %arrayctor.loop ]
  %arrayctor.cur.ptr = getelementptr inbounds nuw i8, ptr %call, i64 %arrayctor.cur.idx
  tail call void @_ZNSt7__cxx1112basic_stringIcSt11char_traitsIcESaIcEEC1Ev(ptr noundef nonnull align 8 dereferenceable(32) %arrayctor.cur.ptr) #8
  %arrayctor.cur.add = add nuw nsw i64 %arrayctor.cur.idx, 32
  %arrayctor.done = icmp eq i64 %arrayctor.cur.add, 2856
  br i1 %arrayctor.done, label %for.cond.preheader, label %arrayctor.loop

for.cond.preheader:                               ; preds = %arrayctor.loop
  %.ptr = getelementptr inbounds nuw i8, ptr %call, i64 8
  %cmp20 = icmp eq i8 %type, 1
  br i1 %cmp20, label %for.body.us, label %for.body

for.body.us:                                      ; preds = %for.cond.preheader, %for.body.us
  %j.09.us = phi i64 [ %inc.us, %for.body.us ], [ 0, %for.cond.preheader ]
  %arrayidx.us = getelementptr inbounds nuw [87 x %"struct.proxygen::HTTPCommonHeaderName"], ptr @_ZN8proxygenL8wordlistE, i64 0, i64 %j.09.us
  %code1.us = getelementptr inbounds nuw i8, ptr %arrayidx.us, i64 8
  %0 = load i8, ptr %code1.us, align 8
  %1 = load ptr, ptr %arrayidx.us, align 16
  %idxprom17.us = zext i8 %0 to i64
  %arrayidx18.us = getelementptr inbounds nuw %"class.std::__cxx11::basic_string", ptr %.ptr, i64 %idxprom17.us
  %call19.us = tail call noundef nonnull align 8 dereferenceable(32) ptr @_ZNSt7__cxx1112basic_stringIcSt11char_traitsIcESaIcEEaSEPKc(ptr noundef nonnull align 8 dereferenceable(32) %arrayidx18.us, ptr noundef %1)
  %call23.us = tail call noundef ptr @_ZNSt7__cxx1112basic_stringIcSt11char_traitsIcESaIcEE4dataEv(ptr noundef nonnull align 8 dereferenceable(32) %arrayidx18.us) #8
  %call26.us = tail call noundef i64 @_ZNKSt7__cxx1112basic_stringIcSt11char_traitsIcESaIcEE4sizeEv(ptr noundef nonnull align 8 dereferenceable(32) %arrayidx18.us) #8
  tail call void @_ZN5folly12toLowerAsciiEPcm(ptr noundef %call23.us, i64 noundef %call26.us)
  %inc.us = add nuw nsw i64 %j.09.us, 1
  %exitcond11.not = icmp eq i64 %inc.us, 87
  br i1 %exitcond11.not, label %for.end, label %for.body.us, !llvm.loop !6

for.body:                                         ; preds = %for.cond.preheader, %for.body
  %j.09 = phi i64 [ %inc, %for.body ], [ 0, %for.cond.preheader ]
  %arrayidx = getelementptr inbounds nuw [87 x %"struct.proxygen::HTTPCommonHeaderName"], ptr @_ZN8proxygenL8wordlistE, i64 0, i64 %j.09
  %code1 = getelementptr inbounds nuw i8, ptr %arrayidx, i64 8
  %2 = load i8, ptr %code1, align 8
  %3 = load ptr, ptr %arrayidx, align 16
  %idxprom17 = zext i8 %2 to i64
  %arrayidx18 = getelementptr inbounds nuw %"class.std::__cxx11::basic_string", ptr %.ptr, i64 %idxprom17
  %call19 = tail call noundef nonnull align 8 dereferenceable(32) ptr @_ZNSt7__cxx1112basic_stringIcSt11char_traitsIcESaIcEEaSEPKc(ptr noundef nonnull align 8 dereferenceable(32) %arrayidx18, ptr noundef %3)
  %inc = add nuw nsw i64 %j.09, 1
  %exitcond.not = icmp eq i64 %inc, 87
  br i1 %exitcond.not, label %for.end, label %for.body, !llvm.loop !6

for.end:                                          ; preds = %for.body, %for.body.us
  ret ptr %.ptr
}